target datalayout = "e-m:e-p270:32:32-p271:32:32-p272:64:64-i64:64-i128:128-f80:128-n8:16:32:64-S128"
target triple = "x86_64-pc-linux-gnu"

%struct.Aig_Obj_t_ = type { %union.anon, ptr, ptr, i64, i32, i32, %union.anon.0 }
%union.anon = type { ptr }
%union.anon.0 = type { ptr }
%struct.Aig_Man_t_ = type { ptr, ptr, ptr, ptr, ptr, ptr, ptr, %struct.Aig_Obj_t_, i32, i32, i32, i32, i32, i32, [7 x i32], i32, ptr, i32, ptr, i32, ptr, i32, i32, i32, ptr, i32, i32, i32, i32, i32, ptr, ptr, i32, ptr, ptr, i32, ptr, ptr, i32, i32, i32, ptr, ptr, ptr, ptr, ptr, ptr, ptr, ptr, ptr, ptr, ptr, ptr, ptr, ptr, i32, ptr, ptr, ptr, ptr, i32, i64, i64, i64, ptr, ptr }
%struct.Iso_Man_t_ = type { ptr, ptr, i32, i32, i32, i32, i32, i32, ptr, ptr, ptr, ptr, ptr, i64, i64, i64, i64, i64 }
%struct.Vec_Ptr_t_ = type { i32, i32, ptr }
%struct.Iso_Obj_t_ = type { i32, i32, i32, i32, i32, i32 }

; Function Attrs: inlinehint nounwind uwtable
define internal ptr @Vec_PtrEntry(ptr noundef %0, i32 noundef %1) #4 {
  %3 = alloca ptr, align 8
  %4 = alloca i32, align 4
  store ptr %0, ptr %3, align 8, !tbaa !57
  store i32 %1, ptr %4, align 4, !tbaa !8
  %5 = load ptr, ptr %3, align 8, !tbaa !57
  %6 = getelementptr inbounds nuw %struct.Vec_Ptr_t_, ptr %5, i32 0, i32 2
  %7 = load ptr, ptr %6, align 8, !tbaa !61
  %8 = load i32, ptr %4, align 4, !tbaa !8
  %9 = sext i32 %8 to i64
  %10 = getelementptr inbounds ptr, ptr %7, i64 %9
  %11 = load ptr, ptr %10, align 8, !tbaa !79
  ret ptr %11
}

; Function Attrs: inlinehint nounwind uwtable
define internal ptr @Aig_ManObj(ptr noundef %0, i32 noundef %1) #4 {
  %3 = alloca ptr, align 8
  %4 = alloca i32, align 4
  store ptr %0, ptr %3, align 8, !tbaa !21
  store i32 %1, ptr %4, align 4, !tbaa !8
  %5 = load ptr, ptr %3, align 8, !tbaa !21
  %6 = getelementptr inbounds nuw %struct.Aig_Man_t_, ptr %5, i32 0, i32 4
  %7 = load ptr, ptr %6, align 8, !tbaa !54
  %8 = icmp ne ptr %7, null
  br i1 %8, label %9, label %15

9:                                                ; preds = %2
  %10 = load ptr, ptr %3, align 8, !tbaa !21
  %11 = getelementptr inbounds nuw %struct.Aig_Man_t_, ptr %10, i32 0, i32 4
  %12 = load ptr, ptr %11, align 8, !tbaa !54
  %13 = load i32, ptr %4, align 4, !tbaa !8
  %14 = call ptr @Vec_PtrEntry(ptr noundef %12, i32 noundef %13)
  br label %16

15:                                               ; preds = %2
  br label %16

16:                                               ; preds = %15, %9
  %17 = phi ptr [ %14, %9 ], [ null, %15 ]
  ret ptr %17
}

; Function Attrs: inlinehint nounwind uwtable
define internal i32 @Iso_ObjId(ptr noundef %0, ptr noundef %1) #4 {
  %3 = alloca ptr, align 8
  %4 = alloca ptr, align 8
  store ptr %0, ptr %3, align 8, !tbaa !40
  store ptr %1, ptr %4, align 8, !tbaa !69
  %5 = load ptr, ptr %4, align 8, !tbaa !69
  %6 = load ptr, ptr %3, align 8, !tbaa !40
  %7 = getelementptr inbounds nuw %struct.Iso_Man_t_, ptr %6, i32 0, i32 1
  %8 = load ptr, ptr %7, align 8, !tbaa !46
  %9 = ptrtoint ptr %5 to i64
  %10 = ptrtoint ptr %8 to i64
  %11 = sub i64 %9, %10
  %12 = sdiv exact i64 %11, 24
  %13 = trunc i64 %12 to i32
  ret i32 %13
}

; Function Attrs: inlinehint nounwind uwtable
define internal ptr @Iso_ManObj(ptr noundef %0, i32 noundef %1) #4 {
  %3 = alloca ptr, align 8
  %4 = alloca i32, align 4
  store ptr %0, ptr %3, align 8, !tbaa !40
  store i32 %1, ptr %4, align 4, !tbaa !8
  %5 = load i32, ptr %4, align 4, !tbaa !8
  %6 = icmp ne i32 %5, 0
  br i1 %6, label %7, label %14

7:                                                ; preds = %2
  %8 = load ptr, ptr %3, align 8, !tbaa !40
  %9 = getelementptr inbounds nuw %struct.Iso_Man_t_, ptr %8, i32 0, i32 1
  %10 = load ptr, ptr %9, align 8, !tbaa !46
  %11 = load i32, ptr %4, align 4, !tbaa !8
  %12 = sext i32 %11 to i64
  %13 = getelementptr inbounds %struct.Iso_Obj_t_, ptr %10, i64 %12
  br label %15

14:                                               ; preds = %2
  br label %15

15:                                               ; preds = %14, %7
  %16 = phi ptr [ %13, %7 ], [ null, %14 ]
  ret ptr %16
}

; Function Attrs: nounwind uwtable
define void @Iso_ManObjCount(ptr noundef %0, ptr noundef %1, ptr noundef %2, ptr noundef %3) #0 {
  %5 = alloca ptr, align 8
  %6 = alloca ptr, align 8
  %7 = alloca ptr, align 8
  %8 = alloca ptr, align 8
  store ptr %0, ptr %5, align 8, !tbaa !21
  store ptr %1, ptr %6, align 8, !tbaa !23
  store ptr %2, ptr %7, align 8, !tbaa !25
  store ptr %3, ptr %8, align 8, !tbaa !25
  %9 = load ptr, ptr %8, align 8, !tbaa !25
  store i32 0, ptr %9, align 4, !tbaa !8
  %10 = load ptr, ptr %7, align 8, !tbaa !25
  store i32 0, ptr %10, align 4, !tbaa !8
  %11 = load ptr, ptr %5, align 8, !tbaa !21
  call void @Aig_ManIncrementTravId(ptr noundef %11)
  %12 = load ptr, ptr %5, align 8, !tbaa !21
  %13 = load ptr, ptr %6, align 8, !tbaa !23
  %14 = load ptr, ptr %7, align 8, !tbaa !25
  %15 = load ptr, ptr %8, align 8, !tbaa !25
  call void @Iso_ManObjCount_rec(ptr noundef %12, ptr noundef %13, ptr noundef %14, ptr noundef %15)
  ret void
}

; Function Attrs: inlinehint nounwind uwtable
define internal ptr @Iso_AigObj(ptr noundef %0, ptr noundef %1) #4 {
  %3 = alloca ptr, align 8
  %4 = alloca ptr, align 8
  store ptr %0, ptr %3, align 8, !tbaa !40
  store ptr %1, ptr %4, align 8, !tbaa !69
  %5 = load ptr, ptr %3, align 8, !tbaa !40
  %6 = getelementptr inbounds nuw %struct.Iso_Man_t_, ptr %5, i32 0, i32 0
  %7 = load ptr, ptr %6, align 8, !tbaa !42
  %8 = load ptr, ptr %3, align 8, !tbaa !40
  %9 = load ptr, ptr %4, align 8, !tbaa !69
  %10 = call i32 @Iso_ObjId(ptr noundef %8, ptr noundef %9)
  %11 = call ptr @Aig_ManObj(ptr noundef %7, i32 noundef %10)
  ret ptr %11
}

; Function Attrs: nounwind uwtable
define ptr @Iso_ManFindBestObj(ptr noundef %0, ptr noundef %1) #0 {
  %3 = alloca ptr, align 8
  %4 = alloca ptr, align 8
  %5 = alloca ptr, align 8
  %6 = alloca ptr, align 8
  %7 = alloca ptr, align 8
  %8 = alloca i32, align 4
  %9 = alloca i32, align 4
  %10 = alloca i32, align 4
  %11 = alloca i32, align 4
  %12 = alloca i32, align 4
  store ptr %0, ptr %4, align 8, !tbaa !40
  store ptr %1, ptr %5, align 8, !tbaa !69
  call void @llvm.lifetime.start.p0(i64 8, ptr %6) #11
  call void @llvm.lifetime.start.p0(i64 8, ptr %7) #11
  store ptr null, ptr %7, align 8, !tbaa !69
  call void @llvm.lifetime.start.p0(i64 4, ptr %8) #11
  store i32 -1, ptr %8, align 4, !tbaa !8
  call void @llvm.lifetime.start.p0(i64 4, ptr %9) #11
  call void @llvm.lifetime.start.p0(i64 4, ptr %10) #11
  store i32 -1, ptr %10, align 4, !tbaa !8
  call void @llvm.lifetime.start.p0(i64 4, ptr %11) #11
  %13 = load ptr, ptr %5, align 8, !tbaa !69
  %14 = load i32, ptr %13, align 4
  %15 = and i32 %14, 1073741823
  %16 = icmp eq i32 %15, 0
  br i1 %16, label %17, label %19

17:                                               ; preds = %2
  %18 = load ptr, ptr %5, align 8, !tbaa !69
  store ptr %18, ptr %3, align 8
  store i32 1, ptr %12, align 4
  br label %55

19:                                               ; preds = %2
  %20 = load ptr, ptr %5, align 8, !tbaa !69
  store ptr %20, ptr %6, align 8, !tbaa !69
  br label %21

21:                                               ; preds = %47, %19
  %22 = load ptr, ptr %6, align 8, !tbaa !69
  %23 = icmp ne ptr %22, null
  br i1 %23, label %24, label %53

24:                                               ; preds = %21
  %25 = load ptr, ptr %4, align 8, !tbaa !40
  %26 = getelementptr inbounds nuw %struct.Iso_Man_t_, ptr %25, i32 0, i32 0
  %27 = load ptr, ptr %26, align 8, !tbaa !42
  %28 = load ptr, ptr %4, align 8, !tbaa !40
  %29 = load ptr, ptr %6, align 8, !tbaa !69
  %30 = call ptr @Iso_AigObj(ptr noundef %28, ptr noundef %29)
  call void @Iso_ManObjCount(ptr noundef %27, ptr noundef %30, ptr noundef %9, ptr noundef %11)
  %31 = load i32, ptr %8, align 4, !tbaa !8
  %32 = load i32, ptr %9, align 4, !tbaa !8
  %33 = icmp slt i32 %31, %32
  br i1 %33, label %42, label %34

34:                                               ; preds = %24
  %35 = load i32, ptr %8, align 4, !tbaa !8
  %36 = load i32, ptr %9, align 4, !tbaa !8
  %37 = icmp eq i32 %35, %36
  br i1 %37, label %38, label %46

38:                                               ; preds = %34
  %39 = load i32, ptr %10, align 4, !tbaa !8
  %40 = load i32, ptr %11, align 4, !tbaa !8
  %41 = icmp slt i32 %39, %40
  br i1 %41, label %42, label %46

42:                                               ; preds = %38, %24
  %43 = load i32, ptr %9, align 4, !tbaa !8
  store i32 %43, ptr %8, align 4, !tbaa !8
  %44 = load i32, ptr %11, align 4, !tbaa !8
  store i32 %44, ptr %10, align 4, !tbaa !8
  %45 = load ptr, ptr %6, align 8, !tbaa !69
  store ptr %45, ptr %7, align 8, !tbaa !69
  br label %46

46:                                               ; preds = %42, %38, %34
  br label %47

47:                                               ; preds = %46
  %48 = load ptr, ptr %4, align 8, !tbaa !40
  %49 = load ptr, ptr %6, align 8, !tbaa !69
  %50 = getelementptr inbounds nuw %struct.Iso_Obj_t_, ptr %49, i32 0, i32 4
  %51 = load i32, ptr %50, align 4, !tbaa !72
  %52 = call ptr @Iso_ManObj(ptr noundef %48, i32 noundef %51)
  store ptr %52, ptr %6, align 8, !tbaa !69
  br label %21, !llvm.loop !105

53:                                               ; preds = %21
  %54 = load ptr, ptr %7, align 8, !tbaa !69
  store ptr %54, ptr %3, align 8
  store i32 1, ptr %12, align 4
  br label %55

55:                                               ; preds = %53, %17
  call void @llvm.lifetime.end.p0(i64 4, ptr %11) #11
  call void @llvm.lifetime.end.p0(i64 4, ptr %10) #11
  call void @llvm.lifetime.end.p0(i64 4, ptr %9) #11
  call void @llvm.lifetime.end.p0(i64 4, ptr %8) #11
  call void @llvm.lifetime.end.p0(i64 8, ptr %7) #11
  call void @llvm.lifetime.end.p0(i64 8, ptr %6) #11
  %56 = load ptr, ptr %3, align 8
  ret ptr %56
}