; Function Attrs: nounwind uwtable
define ptr @Iso_ManFindBestObj(ptr noundef readonly captures(none) %0, ptr noundef %1) local_unnamed_addr #0 {
  %3 = alloca i32, align 4
  %4 = alloca i32, align 4
  call void @llvm.lifetime.start.p0(i64 4, ptr nonnull %3) #23
  call void @llvm.lifetime.start.p0(i64 4, ptr nonnull %4) #23
  %5 = load i32, ptr %1, align 4
  %6 = and i32 %5, 1073741823
  %7 = icmp eq i32 %6, 0
  br i1 %7, label %.loopexit, label %.preheader

.preheader:                                       ; preds = %2
  %8 = getelementptr i8, ptr %0, i64 8
  br label %9

9:                                                ; preds = %Iso_ManObj.exit, %.preheader
  %.026 = phi i32 [ -1, %.preheader ], [ %.1, %Iso_ManObj.exit ]
  %.01425 = phi i32 [ -1, %.preheader ], [ %.115, %Iso_ManObj.exit ]
  %.01624 = phi ptr [ null, %.preheader ], [ %.117, %Iso_ManObj.exit ]
  %.01823 = phi ptr [ %1, %.preheader ], [ %33, %Iso_ManObj.exit ]
  %10 = load ptr, ptr %0, align 8, !tbaa !34
  %11 = getelementptr i8, ptr %10, i64 32
  %.val.val = load ptr, ptr %11, align 8, !tbaa !37
  %.not.i.i = icmp eq ptr %.val.val, null
  br i1 %.not.i.i, label %Iso_AigObj.exit, label %12

12:                                               ; preds = %9
  %.val22 = load ptr, ptr %8, align 8, !tbaa !41
  %13 = ptrtoint ptr %.01823 to i64
  %14 = ptrtoint ptr %.val22 to i64
  %15 = sub i64 %13, %14
  %16 = sdiv exact i64 %15, 24
  %17 = getelementptr i8, ptr %.val.val, i64 8
  %.val.i.i = load ptr, ptr %17, align 8, !tbaa !47
  %sext.i = shl i64 %16, 32
  %18 = ashr exact i64 %sext.i, 29
  %19 = getelementptr inbounds i8, ptr %.val.i.i, i64 %18
  %20 = load ptr, ptr %19, align 8, !tbaa !67
  br label %Iso_AigObj.exit

Iso_AigObj.exit:                                  ; preds = %9, %12
  %21 = phi ptr [ %20, %12 ], [ null, %9 ]
  store i32 0, ptr %4, align 4, !tbaa !5
  store i32 0, ptr %3, align 4, !tbaa !5
  call void @Aig_ManIncrementTravId(ptr noundef nonnull %10) #23
  call void @Iso_ManObjCount_rec(ptr noundef nonnull %10, ptr noundef %21, ptr noundef nonnull %3, ptr noundef nonnull %4)
  %22 = load i32, ptr %3, align 4, !tbaa !5
  %23 = icmp slt i32 %.01425, %22
  %.pre = load i32, ptr %4, align 4, !tbaa !5
  br i1 %23, label %27, label %24

24:                                               ; preds = %Iso_AigObj.exit
  %25 = icmp eq i32 %.01425, %22
  %26 = icmp slt i32 %.026, %.pre
  %or.cond = select i1 %25, i1 %26, i1 false
  br i1 %or.cond, label %27, label %28

27:                                               ; preds = %24, %Iso_AigObj.exit
  br label %28

28:                                               ; preds = %24, %27
  %.117 = phi ptr [ %.01823, %27 ], [ %.01624, %24 ]
  %.115 = phi i32 [ %22, %27 ], [ %.01425, %24 ]
  %.1 = phi i32 [ %.pre, %27 ], [ %.026, %24 ]
  %29 = getelementptr inbounds nuw i8, ptr %.01823, i64 16
  %30 = load i32, ptr %29, align 4, !tbaa !65
  %.not.i = icmp eq i32 %30, 0
  br i1 %.not.i, label %.loopexit, label %Iso_ManObj.exit

Iso_ManObj.exit:                                  ; preds = %28
  %31 = load ptr, ptr %8, align 8, !tbaa !41
  %32 = sext i32 %30 to i64
  %33 = getelementptr inbounds %struct.Iso_Obj_t_, ptr %31, i64 %32
  br label %9, !llvm.loop !102

.loopexit:                                        ; preds = %28, %2
  %.019 = phi ptr [ %1, %2 ], [ %.117, %28 ]
  call void @llvm.lifetime.end.p0(i64 4, ptr nonnull %4) #23
  call void @llvm.lifetime.end.p0(i64 4, ptr nonnull %3) #23
  ret ptr %.019
}